target datalayout = "e-m:e-p270:32:32-p271:32:32-p272:64:64-i64:64-i128:128-f80:128-n8:16:32:64-S128"
target triple = "x86_64-pc-linux-gnu"

%union.pthread_mutex_t = type { %struct.__pthread_mutex_s }
%struct.__pthread_mutex_s = type { i32, i32, i32, i32, i32, i16, i16, %struct.__pthread_internal_list }
%struct.__pthread_internal_list = type { ptr, ptr }
%struct.pmix_tma = type { ptr, ptr, ptr, ptr, ptr, ptr, ptr, ptr }
%union.pthread_cond_t = type { %struct.__pthread_cond_s }
%struct.__pthread_cond_s = type { %union.__atomic_wide_counter, %union.__atomic_wide_counter, [2 x i32], [2 x i32], i32, i32, [2 x i32] }
%union.__atomic_wide_counter = type { i64 }
%struct.pmix_list_t = type { %struct.pmix_object_t, %struct.pmix_list_item_t, i64 }
%struct.pmix_object_t = type { %union.pthread_mutex_t, ptr, i32, %struct.pmix_tma }
%struct.pmix_list_item_t = type { %struct.pmix_object_t, ptr, ptr, i32 }
%struct.pmix_lock_t = type { i32, %struct.pmix_mutex_t, %union.pthread_cond_t, i8 }
%struct.pmix_mutex_t = type { %struct.pmix_object_t, %union.pthread_mutex_t }
%struct.prte_odls_globals_t = type { i32, %struct.pmix_list_t, ptr, i32, i32, i32, ptr, ptr, i32, i8, %struct.pmix_lock_t, ptr }

@.str.2 = private unnamed_addr constant [5 x i8] c"prte\00", align 1
@.str.3 = private unnamed_addr constant [5 x i8] c"odls\00", align 1
@.str.7 = private unnamed_addr constant [5 x i8] c"base\00", align 1
@.str.8 = private unnamed_addr constant [12 x i8] c"max_threads\00", align 1
@.str.9 = private unnamed_addr constant [58 x i8] c"Maximum number of threads to use for spawning local procs\00", align 1
@.str.10 = private unnamed_addr constant [12 x i8] c"num_threads\00", align 1
@.str.11 = private unnamed_addr constant [59 x i8] c"Specific number of threads to use for spawning local procs\00", align 1
@.str.12 = private unnamed_addr constant [7 x i8] c"cutoff\00", align 1
@.str.13 = private unnamed_addr constant [65 x i8] c"Minimum number of local procs before using thread pool for spawn\00", align 1
@.str.14 = private unnamed_addr constant [28 x i8] c"signal_direct_children_only\00", align 1
@.str.15 = private unnamed_addr constant [132 x i8] c"Whether to restrict signals (e.g., SIGTERM) to direct children, or to apply them as well to any children spawned by those processes\00", align 1
@.str.16 = private unnamed_addr constant [11 x i8] c"exec_agent\00", align 1
@.str.17 = private unnamed_addr constant [59 x i8] c"Command used to exec application processes [default: NULL]\00", align 1

; Function Attrs: nounwind uwtable
define internal i32 @prte_odls_base_register(i32 noundef %0) #0 {
  %2 = alloca i32, align 4
  store i32 %0, ptr %2, align 4, !tbaa !28
  store i32 16, ptr getelementptr inbounds nuw (%struct.prte_odls_globals_t, ptr @prte_odls_globals, i32 0, i32 3), align 8, !tbaa !39
  %3 = call i32 @pmix_mca_base_var_register(ptr noundef @.str.2, ptr noundef @.str.3, ptr noundef @.str.7, ptr noundef @.str.8, ptr noundef @.str.9, i32 noundef 0, ptr noundef getelementptr inbounds nuw (%struct.prte_odls_globals_t, ptr @prte_odls_globals, i32 0, i32 3))
  store i32 -1, ptr getelementptr inbounds nuw (%struct.prte_odls_globals_t, ptr @prte_odls_globals, i32 0, i32 4), align 4, !tbaa !26
  %4 = call i32 @pmix_mca_base_var_register(ptr noundef @.str.2, ptr noundef @.str.3, ptr noundef @.str.7, ptr noundef @.str.10, ptr noundef @.str.11, i32 noundef 0, ptr noundef getelementptr inbounds nuw (%struct.prte_odls_globals_t, ptr @prte_odls_globals, i32 0, i32 4))
  store i32 32, ptr getelementptr inbounds nuw (%struct.prte_odls_globals_t, ptr @prte_odls_globals, i32 0, i32 5), align 8, !tbaa !50
  %5 = call i32 @pmix_mca_base_var_register(ptr noundef @.str.2, ptr noundef @.str.3, ptr noundef @.str.7, ptr noundef @.str.12, ptr noundef @.str.13, i32 noundef 0, ptr noundef getelementptr inbounds nuw (%struct.prte_odls_globals_t, ptr @prte_odls_globals, i32 0, i32 5))
  store i8 0, ptr getelementptr inbounds nuw (%struct.prte_odls_globals_t, ptr @prte_odls_globals, i32 0, i32 9), align 4, !tbaa !58
  %6 = call i32 @pmix_mca_base_var_register(ptr noundef @.str.2, ptr noundef @.str.3, ptr noundef @.str.7, ptr noundef @.str.14, ptr noundef @.str.15, i32 noundef 7, ptr noundef getelementptr inbounds nuw (%struct.prte_odls_globals_t, ptr @prte_odls_globals, i32 0, i32 9))
  store ptr null, ptr getelementptr inbounds nuw (%struct.prte_odls_globals_t, ptr @prte_odls_globals, i32 0, i32 11), align 8, !tbaa !59
  %7 = call i32 @pmix_mca_base_var_register(ptr noundef @.str.2, ptr noundef @.str.3, ptr noundef @.str.7, ptr noundef @.str.16, ptr noundef @.str.17, i32 noundef 5, ptr noundef getelementptr inbounds nuw (%struct.prte_odls_globals_t, ptr @prte_odls_globals, i32 0, i32 11))
  ret i32 0
}