; Function Attrs: nounwind uwtable
define internal noundef i32 @prte_odls_base_register(i32 %0) #0 {
  store i32 16, ptr getelementptr inbounds nuw (i8, ptr @prte_odls_globals, i64 288), align 8, !tbaa !35
  %2 = tail call i32 @pmix_mca_base_var_register(ptr noundef nonnull @.str.2, ptr noundef nonnull @.str.3, ptr noundef nonnull @.str.7, ptr noundef nonnull @.str.8, ptr noundef nonnull @.str.9, i32 noundef 0, ptr noundef nonnull getelementptr inbounds nuw (i8, ptr @prte_odls_globals, i64 288)) #13
  store i32 -1, ptr getelementptr inbounds nuw (i8, ptr @prte_odls_globals, i64 292), align 4, !tbaa !26
  %3 = tail call i32 @pmix_mca_base_var_register(ptr noundef nonnull @.str.2, ptr noundef nonnull @.str.3, ptr noundef nonnull @.str.7, ptr noundef nonnull @.str.10, ptr noundef nonnull @.str.11, i32 noundef 0, ptr noundef nonnull getelementptr inbounds nuw (i8, ptr @prte_odls_globals, i64 292)) #13
  store i32 32, ptr getelementptr inbounds nuw (i8, ptr @prte_odls_globals, i64 296), align 8, !tbaa !46
  %4 = tail call i32 @pmix_mca_base_var_register(ptr noundef nonnull @.str.2, ptr noundef nonnull @.str.3, ptr noundef nonnull @.str.7, ptr noundef nonnull @.str.12, ptr noundef nonnull @.str.13, i32 noundef 0, ptr noundef nonnull getelementptr inbounds nuw (i8, ptr @prte_odls_globals, i64 296)) #13
  store i8 0, ptr getelementptr inbounds nuw (i8, ptr @prte_odls_globals, i64 324), align 4, !tbaa !54
  %5 = tail call i32 @pmix_mca_base_var_register(ptr noundef nonnull @.str.2, ptr noundef nonnull @.str.3, ptr noundef nonnull @.str.7, ptr noundef nonnull @.str.14, ptr noundef nonnull @.str.15, i32 noundef 7, ptr noundef nonnull getelementptr inbounds nuw (i8, ptr @prte_odls_globals, i64 324)) #13
  store ptr null, ptr getelementptr inbounds nuw (i8, ptr @prte_odls_globals, i64 552), align 8, !tbaa !55
  %6 = tail call i32 @pmix_mca_base_var_register(ptr noundef nonnull @.str.2, ptr noundef nonnull @.str.3, ptr noundef nonnull @.str.7, ptr noundef nonnull @.str.16, ptr noundef nonnull @.str.17, i32 noundef 5, ptr noundef nonnull getelementptr inbounds nuw (i8, ptr @prte_odls_globals, i64 552)) #13
  ret i32 0
}